target datalayout = "e-m:e-p270:32:32-p271:32:32-p272:64:64-i64:64-i128:128-f80:128-n8:16:32:64-S128"
target triple = "x86_64-pc-linux-gnu"

%struct.Node = type { i32 }
%struct.Var = type { %struct.Expr, i32, i16, i32, i32, i32, ptr, i32, i32, i32, i16, i32 }
%struct.Expr = type { i32 }
%struct.pull_varattnos_context = type { ptr, i32 }

; Function Attrs: nounwind uwtable
define internal zeroext i1 @pull_varattnos_walker(ptr noundef %0, ptr noundef %1) #0 {
  %3 = alloca i1, align 1
  %4 = alloca ptr, align 8
  %5 = alloca ptr, align 8
  %6 = alloca ptr, align 8
  store ptr %0, ptr %4, align 8
  store ptr %1, ptr %5, align 8
  %7 = load ptr, ptr %4, align 8
  %8 = icmp eq ptr %7, null
  br i1 %8, label %9, label %10

9:                                                ; preds = %2
  store i1 false, ptr %3, align 1
  br label %46

10:                                               ; preds = %2
  %11 = load ptr, ptr %4, align 8
  %12 = getelementptr inbounds nuw %struct.Node, ptr %11, i32 0, i32 0
  %13 = load i32, ptr %12, align 4
  %14 = icmp eq i32 %13, 6
  br i1 %14, label %15, label %42

15:                                               ; preds = %10
  call void @llvm.lifetime.start.p0(i64 8, ptr %6) #6
  %16 = load ptr, ptr %4, align 8
  store ptr %16, ptr %6, align 8
  %17 = load ptr, ptr %6, align 8
  %18 = getelementptr inbounds nuw %struct.Var, ptr %17, i32 0, i32 1
  %19 = load i32, ptr %18, align 4
  %20 = load ptr, ptr %5, align 8
  %21 = getelementptr inbounds nuw %struct.pull_varattnos_context, ptr %20, i32 0, i32 1
  %22 = load i32, ptr %21, align 8
  %23 = icmp eq i32 %19, %22
  br i1 %23, label %24, label %41

24:                                               ; preds = %15
  %25 = load ptr, ptr %6, align 8
  %26 = getelementptr inbounds nuw %struct.Var, ptr %25, i32 0, i32 7
  %27 = load i32, ptr %26, align 8
  %28 = icmp eq i32 %27, 0
  br i1 %28, label %29, label %41

29:                                               ; preds = %24
  %30 = load ptr, ptr %5, align 8
  %31 = getelementptr inbounds nuw %struct.pull_varattnos_context, ptr %30, i32 0, i32 0
  %32 = load ptr, ptr %31, align 8
  %33 = load ptr, ptr %6, align 8
  %34 = getelementptr inbounds nuw %struct.Var, ptr %33, i32 0, i32 2
  %35 = load i16, ptr %34, align 8
  %36 = sext i16 %35 to i32
  %37 = sub i32 %36, -7
  %38 = call ptr @bms_add_member(ptr noundef %32, i32 noundef %37)
  %39 = load ptr, ptr %5, align 8
  %40 = getelementptr inbounds nuw %struct.pull_varattnos_context, ptr %39, i32 0, i32 0
  store ptr %38, ptr %40, align 8
  br label %41

41:                                               ; preds = %29, %24, %15
  store i1 false, ptr %3, align 1
  call void @llvm.lifetime.end.p0(i64 8, ptr %6) #6
  br label %46

42:                                               ; preds = %10
  %43 = load ptr, ptr %4, align 8
  %44 = load ptr, ptr %5, align 8
  %45 = call zeroext i1 @expression_tree_walker_impl(ptr noundef %43, ptr noundef @pull_varattnos_walker, ptr noundef %44)
  store i1 %45, ptr %3, align 1
  br label %46

46:                                               ; preds = %42, %41, %9
  %47 = load i1, ptr %3, align 1
  ret i1 %47
}

; Function Attrs: nounwind uwtable
define dso_local void @pull_varattnos(ptr noundef %0, i32 noundef %1, ptr noundef %2) #0 {
  %4 = alloca ptr, align 8
  %5 = alloca i32, align 4
  %6 = alloca ptr, align 8
  %7 = alloca %struct.pull_varattnos_context, align 8
  store ptr %0, ptr %4, align 8
  store i32 %1, ptr %5, align 4
  store ptr %2, ptr %6, align 8
  call void @llvm.lifetime.start.p0(i64 16, ptr %7) #6
  %8 = load ptr, ptr %6, align 8
  %9 = load ptr, ptr %8, align 8
  %10 = getelementptr inbounds nuw %struct.pull_varattnos_context, ptr %7, i32 0, i32 0
  store ptr %9, ptr %10, align 8
  %11 = load i32, ptr %5, align 4
  %12 = getelementptr inbounds nuw %struct.pull_varattnos_context, ptr %7, i32 0, i32 1
  store i32 %11, ptr %12, align 8
  %13 = load ptr, ptr %4, align 8
  %14 = call zeroext i1 @pull_varattnos_walker(ptr noundef %13, ptr noundef %7)
  %15 = getelementptr inbounds nuw %struct.pull_varattnos_context, ptr %7, i32 0, i32 0
  %16 = load ptr, ptr %15, align 8
  %17 = load ptr, ptr %6, align 8
  store ptr %16, ptr %17, align 8
  call void @llvm.lifetime.end.p0(i64 16, ptr %7) #6
  ret void
}