; Function Attrs: nounwind uwtable
define dso_local void @pull_varattnos(ptr noundef %0, i32 noundef %1, ptr noundef captures(none) %2) local_unnamed_addr #0 {
  %4 = alloca %struct.pull_varattnos_context, align 8
  call void @llvm.lifetime.start.p0(i64 16, ptr nonnull %4) #6
  %5 = load ptr, ptr %2, align 8
  store ptr %5, ptr %4, align 8
  %6 = getelementptr inbounds nuw i8, ptr %4, i64 8
  store i32 %1, ptr %6, align 8
  %7 = icmp eq ptr %0, null
  br i1 %7, label %pull_varattnos_walker.exit, label %8

8:                                                ; preds = %3
  %9 = load i32, ptr %0, align 4
  %10 = icmp eq i32 %9, 6
  br i1 %10, label %11, label %25

11:                                               ; preds = %8
  %12 = getelementptr inbounds nuw i8, ptr %0, i64 4
  %13 = load i32, ptr %12, align 4
  %14 = icmp eq i32 %13, %1
  br i1 %14, label %15, label %pull_varattnos_walker.exit

15:                                               ; preds = %11
  %16 = getelementptr inbounds nuw i8, ptr %0, i64 32
  %17 = load i32, ptr %16, align 8
  %18 = icmp eq i32 %17, 0
  br i1 %18, label %19, label %pull_varattnos_walker.exit

19:                                               ; preds = %15
  %20 = getelementptr inbounds nuw i8, ptr %0, i64 8
  %21 = load i16, ptr %20, align 8
  %22 = sext i16 %21 to i32
  %23 = add nsw i32 %22, 7
  %24 = tail call ptr @bms_add_member(ptr noundef %5, i32 noundef %23) #6
  br label %pull_varattnos_walker.exit

25:                                               ; preds = %8
  %26 = call zeroext i1 @expression_tree_walker_impl(ptr noundef nonnull %0, ptr noundef nonnull @pull_varattnos_walker, ptr noundef nonnull %4) #6
  %.pre = load ptr, ptr %4, align 8
  br label %pull_varattnos_walker.exit

pull_varattnos_walker.exit:                       ; preds = %3, %11, %15, %19, %25
  %27 = phi ptr [ %5, %3 ], [ %5, %11 ], [ %5, %15 ], [ %24, %19 ], [ %.pre, %25 ]
  store ptr %27, ptr %2, align 8
  call void @llvm.lifetime.end.p0(i64 16, ptr nonnull %4) #6
  ret void
}